; Function Attrs: nounwind uwtable
define internal fastcc void @CLOSE_BRACKET_WITHOUT_ESC_WARN(ptr noundef readonly captures(none) %0) unnamed_addr #2 {
  %2 = alloca [256 x i8], align 16
  %3 = load ptr, ptr @onig_warn, align 8, !tbaa !4
  %4 = icmp eq ptr %3, @onig_null_warn
  br i1 %4, label %19, label %5

5:                                                ; preds = %1
  %6 = getelementptr inbounds nuw i8, ptr %0, i64 16
  %7 = load ptr, ptr %6, align 8, !tbaa !144
  %8 = getelementptr inbounds nuw i8, ptr %7, i64 8
  %9 = load i32, ptr %8, align 4, !tbaa !58
  %10 = and i32 %9, 16777216
  %.not = icmp eq i32 %10, 0
  br i1 %.not, label %19, label %11

11:                                               ; preds = %5
  call void @llvm.lifetime.start.p0(i64 256, ptr nonnull %2) #24
  %12 = getelementptr inbounds nuw i8, ptr %0, i64 8
  %13 = load ptr, ptr %12, align 8, !tbaa !143
  %14 = getelementptr inbounds nuw i8, ptr %0, i64 40
  %15 = load ptr, ptr %14, align 8, !tbaa !145
  %16 = getelementptr inbounds nuw i8, ptr %0, i64 48
  %17 = load ptr, ptr %16, align 8, !tbaa !146
  call void (ptr, i32, ptr, ptr, ptr, ptr, ...) @onig_snprintf_with_pattern(ptr noundef nonnull %2, i32 noundef 256, ptr noundef %13, ptr noundef %15, ptr noundef %17, ptr noundef nonnull @.str.1, ptr noundef nonnull @.str) #24
  %18 = load ptr, ptr @onig_warn, align 8, !tbaa !4
  call void %18(ptr noundef nonnull %2) #24
  call void @llvm.lifetime.end.p0(i64 256, ptr nonnull %2) #24
  br label %19

19:                                               ; preds = %1, %11, %5
  ret void
}